target datalayout = "e-m:e-p270:32:32-p271:32:32-p272:64:64-i64:64-i128:128-f80:128-n8:16:32:64-S128"
target triple = "x86_64-pc-linux-gnu"

; Function Attrs: nounwind uwtable
define i32 @adjustInfoAfterSwap(ptr noundef %0, i32 noundef %1, i32 noundef %2, i32 noundef %3) #0 {
  %5 = alloca i32, align 4
  %6 = alloca ptr, align 8
  %7 = alloca i32, align 4
  %8 = alloca i32, align 4
  %9 = alloca i32, align 4
  %10 = alloca i8, align 1
  store ptr %0, ptr %6, align 8, !tbaa !3
  store i32 %1, ptr %7, align 4, !tbaa !9
  store i32 %2, ptr %8, align 4, !tbaa !9
  store i32 %3, ptr %9, align 4, !tbaa !9
  %11 = load i32, ptr %9, align 4, !tbaa !9
  %12 = icmp ult i32 %11, 4
  br i1 %12, label %13, label %19

13:                                               ; preds = %4
  %14 = load i32, ptr %9, align 4, !tbaa !9
  %15 = load i32, ptr %8, align 4, !tbaa !9
  %16 = shl i32 %14, %15
  %17 = load i32, ptr %7, align 4, !tbaa !9
  %18 = xor i32 %17, %16
  store i32 %18, ptr %7, align 4, !tbaa !9
  store i32 %18, ptr %5, align 4
  br label %73

19:                                               ; preds = %4
  call void @llvm.lifetime.start.p0(i64 1, ptr %10) #4
  %20 = load i32, ptr %9, align 4, !tbaa !9
  %21 = sub i32 %20, 4
  %22 = load i32, ptr %8, align 4, !tbaa !9
  %23 = shl i32 %21, %22
  %24 = load i32, ptr %7, align 4, !tbaa !9
  %25 = xor i32 %24, %23
  store i32 %25, ptr %7, align 4, !tbaa !9
  %26 = load ptr, ptr %6, align 8, !tbaa !3
  %27 = load i32, ptr %8, align 4, !tbaa !9
  %28 = sext i32 %27 to i64
  %29 = getelementptr inbounds i8, ptr %26, i64 %28
  %30 = load i8, ptr %29, align 1, !tbaa !8
  store i8 %30, ptr %10, align 1, !tbaa !8
  %31 = load ptr, ptr %6, align 8, !tbaa !3
  %32 = load i32, ptr %8, align 4, !tbaa !9
  %33 = add nsw i32 %32, 1
  %34 = sext i32 %33 to i64
  %35 = getelementptr inbounds i8, ptr %31, i64 %34
  %36 = load i8, ptr %35, align 1, !tbaa !8
  %37 = load ptr, ptr %6, align 8, !tbaa !3
  %38 = load i32, ptr %8, align 4, !tbaa !9
  %39 = sext i32 %38 to i64
  %40 = getelementptr inbounds i8, ptr %37, i64 %39
  store i8 %36, ptr %40, align 1, !tbaa !8
  %41 = load i8, ptr %10, align 1, !tbaa !8
  %42 = load ptr, ptr %6, align 8, !tbaa !3
  %43 = load i32, ptr %8, align 4, !tbaa !9
  %44 = add nsw i32 %43, 1
  %45 = sext i32 %44 to i64
  %46 = getelementptr inbounds i8, ptr %42, i64 %45
  store i8 %41, ptr %46, align 1, !tbaa !8
  %47 = load i32, ptr %7, align 4, !tbaa !9
  %48 = load i32, ptr %8, align 4, !tbaa !9
  %49 = shl i32 1, %48
  %50 = and i32 %47, %49
  %51 = icmp ugt i32 %50, 0
  %52 = zext i1 %51 to i32
  %53 = load i32, ptr %7, align 4, !tbaa !9
  %54 = load i32, ptr %8, align 4, !tbaa !9
  %55 = add nsw i32 %54, 1
  %56 = shl i32 1, %55
  %57 = and i32 %53, %56
  %58 = icmp ugt i32 %57, 0
  %59 = zext i1 %58 to i32
  %60 = icmp ne i32 %52, %59
  br i1 %60, label %61, label %71

61:                                               ; preds = %19
  %62 = load i32, ptr %8, align 4, !tbaa !9
  %63 = shl i32 1, %62
  %64 = load i32, ptr %7, align 4, !tbaa !9
  %65 = xor i32 %64, %63
  store i32 %65, ptr %7, align 4, !tbaa !9
  %66 = load i32, ptr %8, align 4, !tbaa !9
  %67 = add nsw i32 %66, 1
  %68 = shl i32 1, %67
  %69 = load i32, ptr %7, align 4, !tbaa !9
  %70 = xor i32 %69, %68
  store i32 %70, ptr %7, align 4, !tbaa !9
  br label %71

71:                                               ; preds = %61, %19
  %72 = load i32, ptr %7, align 4, !tbaa !9
  store i32 %72, ptr %5, align 4
  call void @llvm.lifetime.end.p0(i64 1, ptr %10) #4
  br label %73

73:                                               ; preds = %71, %13
  %74 = load i32, ptr %5, align 4
  ret i32 %74
}

; Function Attrs: nounwind uwtable
define i64 @Extra_Truth6SwapAdjacent(i64 noundef %0, i32 noundef %1) #0 {
  %3 = alloca i64, align 8
  %4 = alloca i32, align 4
  store i64 %0, ptr %3, align 8, !tbaa !13
  store i32 %1, ptr %4, align 4, !tbaa !9
  %5 = load i64, ptr %3, align 8, !tbaa !13
  %6 = load i32, ptr %4, align 4, !tbaa !9
  %7 = sext i32 %6 to i64
  %8 = getelementptr inbounds [5 x [3 x i64]], ptr @Extra_Truth6SwapAdjacent.PMasks, i64 0, i64 %7
  %9 = getelementptr inbounds [3 x i64], ptr %8, i64 0, i64 0
  %10 = load i64, ptr %9, align 8, !tbaa !13
  %11 = and i64 %5, %10
  %12 = load i64, ptr %3, align 8, !tbaa !13
  %13 = load i32, ptr %4, align 4, !tbaa !9
  %14 = sext i32 %13 to i64
  %15 = getelementptr inbounds [5 x [3 x i64]], ptr @Extra_Truth6SwapAdjacent.PMasks, i64 0, i64 %14
  %16 = getelementptr inbounds [3 x i64], ptr %15, i64 0, i64 1
  %17 = load i64, ptr %16, align 8, !tbaa !13
  %18 = and i64 %12, %17
  %19 = load i32, ptr %4, align 4, !tbaa !9
  %20 = shl i32 1, %19
  %21 = zext i32 %20 to i64
  %22 = shl i64 %18, %21
  %23 = or i64 %11, %22
  %24 = load i64, ptr %3, align 8, !tbaa !13
  %25 = load i32, ptr %4, align 4, !tbaa !9
  %26 = sext i32 %25 to i64
  %27 = getelementptr inbounds [5 x [3 x i64]], ptr @Extra_Truth6SwapAdjacent.PMasks, i64 0, i64 %26
  %28 = getelementptr inbounds [3 x i64], ptr %27, i64 0, i64 2
  %29 = load i64, ptr %28, align 8, !tbaa !13
  %30 = and i64 %24, %29
  %31 = load i32, ptr %4, align 4, !tbaa !9
  %32 = shl i32 1, %31
  %33 = zext i32 %32 to i64
  %34 = lshr i64 %30, %33
  %35 = or i64 %23, %34
  ret i64 %35
}

; Function Attrs: nounwind uwtable
define i64 @Extra_Truth6MinimumRoundOne_noEBFC(i64 noundef %0, i32 noundef %1, ptr noundef %2, ptr noundef %3) #0 {
  %5 = alloca i64, align 8
  %6 = alloca i64, align 8
  %7 = alloca i32, align 4
  %8 = alloca ptr, align 8
  %9 = alloca ptr, align 8
  %10 = alloca i64, align 8
  %11 = alloca i32, align 4
  store i64 %0, ptr %6, align 8, !tbaa !13
  store i32 %1, ptr %7, align 4, !tbaa !9
  store ptr %2, ptr %8, align 8, !tbaa !3
  store ptr %3, ptr %9, align 8, !tbaa !15
  call void @llvm.lifetime.start.p0(i64 8, ptr %10) #4
  %12 = load i64, ptr %6, align 8, !tbaa !13
  %13 = load i32, ptr %7, align 4, !tbaa !9
  %14 = call i64 @Extra_Truth6SwapAdjacent(i64 noundef %12, i32 noundef %13)
  store i64 %14, ptr %10, align 8, !tbaa !13
  %15 = load i64, ptr %6, align 8, !tbaa !13
  %16 = load i64, ptr %10, align 8, !tbaa !13
  %17 = icmp ult i64 %15, %16
  br i1 %17, label %18, label %20

18:                                               ; preds = %4
  %19 = load i64, ptr %6, align 8, !tbaa !13
  store i64 %19, ptr %5, align 8
  store i32 1, ptr %11, align 4
  br label %28

20:                                               ; preds = %4
  %21 = load ptr, ptr %8, align 8, !tbaa !3
  %22 = load ptr, ptr %9, align 8, !tbaa !15
  %23 = load i32, ptr %22, align 4, !tbaa !9
  %24 = load i32, ptr %7, align 4, !tbaa !9
  %25 = call i32 @adjustInfoAfterSwap(ptr noundef %21, i32 noundef %23, i32 noundef %24, i32 noundef 4)
  %26 = load ptr, ptr %9, align 8, !tbaa !15
  store i32 %25, ptr %26, align 4, !tbaa !9
  %27 = load i64, ptr %10, align 8, !tbaa !13
  store i64 %27, ptr %5, align 8
  store i32 1, ptr %11, align 4
  br label %28

28:                                               ; preds = %20, %18
  call void @llvm.lifetime.end.p0(i64 8, ptr %10) #4
  %29 = load i64, ptr %5, align 8
  ret i64 %29
}

; Function Attrs: nounwind uwtable
define i64 @Extra_Truth6MinimumRoundMany_noEBFC(i64 noundef %0, ptr noundef %1, ptr noundef %2, ptr noundef %3) #0 {
  %5 = alloca i64, align 8
  %6 = alloca ptr, align 8
  %7 = alloca ptr, align 8
  %8 = alloca ptr, align 8
  %9 = alloca i32, align 4
  %10 = alloca i32, align 4
  %11 = alloca i64, align 8
  %12 = alloca i64, align 8
  store i64 %0, ptr %5, align 8, !tbaa !13
  store ptr %1, ptr %6, align 8, !tbaa !15
  store ptr %2, ptr %7, align 8, !tbaa !3
  store ptr %3, ptr %8, align 8, !tbaa !15
  call void @llvm.lifetime.start.p0(i64 4, ptr %9) #4
  call void @llvm.lifetime.start.p0(i64 4, ptr %10) #4
  call void @llvm.lifetime.start.p0(i64 8, ptr %11) #4
  call void @llvm.lifetime.start.p0(i64 8, ptr %12) #4
  %13 = load i64, ptr %5, align 8, !tbaa !13
  store i64 %13, ptr %12, align 8, !tbaa !13
  br label %14

14:                                               ; preds = %49, %4
  %15 = load ptr, ptr %6, align 8, !tbaa !15
  %16 = getelementptr inbounds i32, ptr %15, i64 0
  %17 = load i32, ptr %16, align 4, !tbaa !9
  store i32 %17, ptr %10, align 4, !tbaa !9
  %18 = load i64, ptr %12, align 8, !tbaa !13
  store i64 %18, ptr %11, align 8, !tbaa !13
  store i32 0, ptr %9, align 4, !tbaa !9
  br label %19

19:                                               ; preds = %45, %14
  %20 = load i32, ptr %9, align 4, !tbaa !9
  %21 = icmp slt i32 %20, 5
  br i1 %21, label %22, label %48

22:                                               ; preds = %19
  %23 = load i32, ptr %10, align 4, !tbaa !9
  %24 = load ptr, ptr %6, align 8, !tbaa !15
  %25 = load i32, ptr %9, align 4, !tbaa !9
  %26 = add nsw i32 %25, 1
  %27 = sext i32 %26 to i64
  %28 = getelementptr inbounds i32, ptr %24, i64 %27
  %29 = load i32, ptr %28, align 4, !tbaa !9
  %30 = icmp eq i32 %23, %29
  br i1 %30, label %31, label %37

31:                                               ; preds = %22
  %32 = load i64, ptr %12, align 8, !tbaa !13
  %33 = load i32, ptr %9, align 4, !tbaa !9
  %34 = load ptr, ptr %7, align 8, !tbaa !3
  %35 = load ptr, ptr %8, align 8, !tbaa !15
  %36 = call i64 @Extra_Truth6MinimumRoundOne_noEBFC(i64 noundef %32, i32 noundef %33, ptr noundef %34, ptr noundef %35)
  store i64 %36, ptr %12, align 8, !tbaa !13
  br label %44

37:                                               ; preds = %22
  %38 = load ptr, ptr %6, align 8, !tbaa !15
  %39 = load i32, ptr %9, align 4, !tbaa !9
  %40 = add nsw i32 %39, 1
  %41 = sext i32 %40 to i64
  %42 = getelementptr inbounds i32, ptr %38, i64 %41
  %43 = load i32, ptr %42, align 4, !tbaa !9
  store i32 %43, ptr %10, align 4, !tbaa !9
  br label %44

44:                                               ; preds = %37, %31
  br label %45

45:                                               ; preds = %44
  %46 = load i32, ptr %9, align 4, !tbaa !9
  %47 = add nsw i32 %46, 1
  store i32 %47, ptr %9, align 4, !tbaa !9
  br label %19, !llvm.loop !19

48:                                               ; preds = %19
  br label %49

49:                                               ; preds = %48
  %50 = load i64, ptr %11, align 8, !tbaa !13
  %51 = load i64, ptr %12, align 8, !tbaa !13
  %52 = icmp ne i64 %50, %51
  br i1 %52, label %14, label %53, !llvm.loop !20

53:                                               ; preds = %49
  %54 = load i64, ptr %12, align 8, !tbaa !13
  call void @llvm.lifetime.end.p0(i64 8, ptr %12) #4
  call void @llvm.lifetime.end.p0(i64 8, ptr %11) #4
  call void @llvm.lifetime.end.p0(i64 4, ptr %10) #4
  call void @llvm.lifetime.end.p0(i64 4, ptr %9) #4
  ret i64 %54
}