; Function Attrs: nofree norecurse nosync nounwind memory(argmem: readwrite) uwtable
define i64 @Extra_Truth6MinimumRoundMany_noEBFC(i64 noundef %0, ptr noundef readonly captures(none) %1, ptr noundef captures(none) %2, ptr noundef captures(none) %3) local_unnamed_addr #5 {
  br label %5

5:                                                ; preds = %41, %4
  %.0 = phi i64 [ %0, %4 ], [ %.2, %41 ]
  %6 = load i32, ptr %1, align 4, !tbaa !8
  br label %7

7:                                                ; preds = %5, %Extra_Truth6MinimumRoundOne_noEBFC.exit
  %indvars.iv = phi i64 [ 0, %5 ], [ %indvars.iv.next, %Extra_Truth6MinimumRoundOne_noEBFC.exit ]
  %.122 = phi i64 [ %.0, %5 ], [ %.2, %Extra_Truth6MinimumRoundOne_noEBFC.exit ]
  %.01720 = phi i32 [ %6, %5 ], [ %.118, %Extra_Truth6MinimumRoundOne_noEBFC.exit ]
  %indvars.iv.next = add nuw nsw i64 %indvars.iv, 1
  %8 = getelementptr inbounds nuw i32, ptr %1, i64 %indvars.iv.next
  %9 = load i32, ptr %8, align 4, !tbaa !8
  %10 = icmp eq i32 %.01720, %9
  br i1 %10, label %11, label %Extra_Truth6MinimumRoundOne_noEBFC.exit

11:                                               ; preds = %7
  %12 = getelementptr inbounds nuw [5 x [3 x i64]], ptr @Extra_Truth6SwapAdjacent.PMasks, i64 0, i64 %indvars.iv
  %13 = load i64, ptr %12, align 8, !tbaa !10
  %14 = and i64 %13, %.122
  %15 = getelementptr inbounds nuw i8, ptr %12, i64 8
  %16 = load i64, ptr %15, align 8, !tbaa !10
  %17 = and i64 %16, %.122
  %18 = trunc nuw nsw i64 %indvars.iv to i32
  %19 = shl nuw nsw i32 1, %18
  %20 = zext nneg i32 %19 to i64
  %21 = shl i64 %17, %20
  %22 = or i64 %21, %14
  %23 = getelementptr inbounds nuw i8, ptr %12, i64 16
  %24 = load i64, ptr %23, align 8, !tbaa !10
  %25 = and i64 %24, %.122
  %26 = lshr i64 %25, %20
  %27 = or i64 %22, %26
  %28 = icmp ult i64 %.122, %27
  br i1 %28, label %Extra_Truth6MinimumRoundOne_noEBFC.exit, label %adjustInfoAfterSwap.exit.i

adjustInfoAfterSwap.exit.i:                       ; preds = %11
  %29 = load i32, ptr %3, align 4, !tbaa !8
  %30 = getelementptr inbounds nuw i8, ptr %2, i64 %indvars.iv
  %31 = load i8, ptr %30, align 1, !tbaa !3
  %32 = getelementptr inbounds nuw i8, ptr %2, i64 %indvars.iv.next
  %33 = load i8, ptr %32, align 1, !tbaa !3
  store i8 %33, ptr %30, align 1, !tbaa !3
  store i8 %31, ptr %32, align 1, !tbaa !3
  %34 = lshr i32 %29, %18
  %35 = trunc nuw nsw i64 %indvars.iv.next to i32
  %36 = lshr i32 %29, %35
  %37 = xor i32 %34, %36
  %38 = and i32 %37, 1
  %.not.i.i = icmp eq i32 %38, 0
  %39 = shl nuw nsw i32 3, %18
  %40 = select i1 %.not.i.i, i32 0, i32 %39
  %.0.i.i = xor i32 %40, %29
  store i32 %.0.i.i, ptr %3, align 4, !tbaa !8
  br label %Extra_Truth6MinimumRoundOne_noEBFC.exit

Extra_Truth6MinimumRoundOne_noEBFC.exit:          ; preds = %adjustInfoAfterSwap.exit.i, %11, %7
  %.118 = phi i32 [ %9, %7 ], [ %.01720, %11 ], [ %.01720, %adjustInfoAfterSwap.exit.i ]
  %.2 = phi i64 [ %.122, %7 ], [ %.122, %11 ], [ %27, %adjustInfoAfterSwap.exit.i ]
  %exitcond.not = icmp eq i64 %indvars.iv.next, 5
  br i1 %exitcond.not, label %41, label %7, !llvm.loop !14

41:                                               ; preds = %Extra_Truth6MinimumRoundOne_noEBFC.exit
  %.not = icmp eq i64 %.0, %.2
  br i1 %.not, label %42, label %5, !llvm.loop !15

42:                                               ; preds = %41
  ret i64 %.0
}